; Function Attrs: nounwind uwtable
define range(i32 -2147483648, 2147483646) i32 @Tim_ManBoxFindFromCiNum(ptr noundef %0, i32 noundef %1) local_unnamed_addr #0 {
  %3 = tail call i32 @Tim_ManPiNum(ptr noundef %0) #8
  %4 = icmp slt i32 %1, %3
  br i1 %4, label %.critedge, label %.preheader

.preheader:                                       ; preds = %2
  %5 = load ptr, ptr %0, align 8, !tbaa !3
  %6 = getelementptr i8, ptr %5, i64 4
  %.val = load i32, ptr %6, align 4, !tbaa !12
  %7 = icmp sgt i32 %.val, 0
  br i1 %7, label %.lr.ph, label %.critedge

.lr.ph:                                           ; preds = %.preheader
  %8 = getelementptr i8, ptr %5, i64 8
  %.val13 = load ptr, ptr %8, align 8, !tbaa !15
  %wide.trip.count = zext nneg i32 %.val to i64
  br label %9

9:                                                ; preds = %.lr.ph, %22
  %indvars.iv = phi i64 [ 0, %.lr.ph ], [ %indvars.iv.next, %22 ]
  %10 = getelementptr inbounds nuw ptr, ptr %.val13, i64 %indvars.iv
  %11 = load ptr, ptr %10, align 8, !tbaa !19
  %12 = getelementptr inbounds nuw i8, ptr %11, i64 28
  %13 = getelementptr inbounds nuw i8, ptr %11, i64 8
  %14 = load i32, ptr %13, align 4, !tbaa !21
  %15 = sext i32 %14 to i64
  %16 = getelementptr inbounds [0 x i32], ptr %12, i64 0, i64 %15
  %17 = load i32, ptr %16, align 4, !tbaa !26
  %18 = icmp slt i32 %1, %17
  br i1 %18, label %19, label %22

19:                                               ; preds = %9
  %20 = trunc nuw nsw i64 %indvars.iv to i32
  %21 = add nsw i32 %20, -1
  br label %.critedge

22:                                               ; preds = %9
  %indvars.iv.next = add nuw nsw i64 %indvars.iv, 1
  %exitcond.not = icmp eq i64 %indvars.iv.next, %wide.trip.count
  br i1 %exitcond.not, label %.critedge, label %9, !llvm.loop !38

.critedge:                                        ; preds = %22, %.preheader, %2, %19
  %.011 = phi i32 [ %21, %19 ], [ -1, %2 ], [ -2, %.preheader ], [ -2, %22 ]
  ret i32 %.011
}